target datalayout = "e-m:e-p270:32:32-p271:32:32-p272:64:64-i64:64-i128:128-f80:128-n8:16:32:64-S128"
target triple = "x86_64-pc-linux-gnu"

%"class.icu_77::UnicodeString" = type { %"class.icu_77::Replaceable", %"union.icu_77::UnicodeString::StackBufferOrFields" }
%"class.icu_77::Replaceable" = type { %"class.icu_77::UObject" }
%"class.icu_77::UObject" = type { ptr }
%"union.icu_77::UnicodeString::StackBufferOrFields" = type { %struct.anon.0, [32 x i8] }
%struct.anon.0 = type { i16, i32, i32, ptr }
%"class.icu_77::CollationDataBuilder" = type { %"class.icu_77::UObject", ptr, ptr, ptr, ptr, %"class.icu_77::UVector32", %"class.icu_77::UVector64", %"class.icu_77::UVector", %"class.icu_77::UnicodeSet", %"class.icu_77::UnicodeString", i32, [4 x i8], %"class.icu_77::UnicodeSet", i8, i8, i8, ptr, ptr }
%"class.icu_77::UVector32" = type { %"class.icu_77::UObject", i32, i32, i32, ptr }
%"class.icu_77::UVector64" = type { %"class.icu_77::UObject", i32, i32, i32, ptr }
%"class.icu_77::UVector" = type { %"class.icu_77::UObject", i32, i32, ptr, ptr, ptr }
%"class.icu_77::UnicodeSet" = type <{ %"class.icu_77::UnicodeFilter", ptr, i32, i32, i8, [7 x i8], ptr, ptr, i32, [4 x i8], ptr, i32, [4 x i8], ptr, ptr, [25 x i32], [4 x i8] }>
%"class.icu_77::UnicodeFilter" = type { %"class.icu_77::UnicodeFunctor", %"class.icu_77::UnicodeMatcher" }
%"class.icu_77::UnicodeFunctor" = type { %"class.icu_77::UObject" }
%"class.icu_77::UnicodeMatcher" = type { ptr }
%"class.icu_77::CopyHelper" = type <{ ptr, ptr, ptr, [31 x i64], i32, [4 x i8] }>

; Function Attrs: inlinehint mustprogress nounwind uwtable
define linkonce_odr noundef i32 @_ZN6icu_779Collation11tagFromCE32Ej(i32 noundef %0) #3 comdat align 2 {
  %2 = alloca i32, align 4
  store i32 %0, ptr %2, align 4, !tbaa !57
  %3 = load i32, ptr %2, align 4, !tbaa !57
  %4 = and i32 %3, 15
  ret i32 %4
}

; Function Attrs: inlinehint mustprogress nounwind uwtable
define linkonce_odr noundef signext i8 @_ZN6icu_779Collation13isSpecialCE32Ej(i32 noundef %0) #3 comdat align 2 {
  %2 = alloca i32, align 4
  store i32 %0, ptr %2, align 4, !tbaa !57
  %3 = load i32, ptr %2, align 4, !tbaa !57
  %4 = and i32 %3, 255
  %5 = icmp uge i32 %4, 192
  %6 = zext i1 %5 to i8
  ret i8 %6
}

; Function Attrs: inlinehint mustprogress uwtable
define linkonce_odr noundef signext i8 @_ZN6icu_779Collation10hasCE32TagEji(i32 noundef %0, i32 noundef %1) #7 comdat align 2 {
  %3 = alloca i32, align 4
  %4 = alloca i32, align 4
  store i32 %0, ptr %3, align 4, !tbaa !57
  store i32 %1, ptr %4, align 4, !tbaa !57
  %5 = load i32, ptr %3, align 4, !tbaa !57
  %6 = call noundef signext i8 @_ZN6icu_779Collation13isSpecialCE32Ej(i32 noundef %5)
  %7 = icmp ne i8 %6, 0
  br i1 %7, label %8, label %13

8:                                                ; preds = %2
  %9 = load i32, ptr %3, align 4, !tbaa !57
  %10 = call noundef i32 @_ZN6icu_779Collation11tagFromCE32Ej(i32 noundef %9)
  %11 = load i32, ptr %4, align 4, !tbaa !57
  %12 = icmp eq i32 %10, %11
  br label %13

13:                                               ; preds = %8, %2
  %14 = phi i1 [ false, %2 ], [ %12, %8 ]
  %15 = zext i1 %14 to i8
  ret i8 %15
}

; Function Attrs: inlinehint mustprogress nounwind uwtable
define internal noundef signext i8 @_ZL9U_SUCCESS10UErrorCode(i32 noundef %0) #3 {
  %2 = alloca i32, align 4
  store i32 %0, ptr %2, align 4, !tbaa !97
  %3 = load i32, ptr %2, align 4, !tbaa !97
  %4 = icmp sle i32 %3, 0
  %5 = zext i1 %4 to i8
  ret i8 %5
}

; Function Attrs: inlinehint mustprogress uwtable
define linkonce_odr noundef signext i8 @_ZN6icu_7720CollationDataBuilder20isBuilderContextCE32Ej(i32 noundef %0) #7 comdat align 2 {
  %2 = alloca i32, align 4
  store i32 %0, ptr %2, align 4, !tbaa !57
  %3 = load i32, ptr %2, align 4, !tbaa !57
  %4 = call noundef signext i8 @_ZN6icu_779Collation10hasCE32TagEji(i32 noundef %3, i32 noundef 7)
  ret i8 %4
}

; Function Attrs: mustprogress uwtable
define linkonce_odr noundef signext i8 @_ZN6icu_7710CopyHelper13copyRangeCE32Eiij(ptr noundef nonnull align 8 dereferenceable(276) %0, i32 noundef %1, i32 noundef %2, i32 noundef %3) #4 comdat align 2 {
  %5 = alloca ptr, align 8
  %6 = alloca i32, align 4
  %7 = alloca i32, align 4
  %8 = alloca i32, align 4
  store ptr %0, ptr %5, align 8, !tbaa !182
  store i32 %1, ptr %6, align 4, !tbaa !57
  store i32 %2, ptr %7, align 4, !tbaa !57
  store i32 %3, ptr %8, align 4, !tbaa !57
  %9 = load ptr, ptr %5, align 8
  %10 = load i32, ptr %8, align 4, !tbaa !57
  %11 = call noundef i32 @_ZN6icu_7710CopyHelper8copyCE32Ej(ptr noundef nonnull align 8 dereferenceable(276) %9, i32 noundef %10)
  store i32 %11, ptr %8, align 4, !tbaa !57
  %12 = getelementptr inbounds nuw %"class.icu_77::CopyHelper", ptr %9, i32 0, i32 1
  %13 = load ptr, ptr %12, align 8, !tbaa !230
  %14 = getelementptr inbounds nuw %"class.icu_77::CollationDataBuilder", ptr %13, i32 0, i32 4
  %15 = load ptr, ptr %14, align 8, !tbaa !99
  %16 = load i32, ptr %6, align 4, !tbaa !57
  %17 = load i32, ptr %7, align 4, !tbaa !57
  %18 = load i32, ptr %8, align 4, !tbaa !57
  %19 = getelementptr inbounds nuw %"class.icu_77::CopyHelper", ptr %9, i32 0, i32 4
  call void @utrie2_setRange32_77(ptr noundef %15, i32 noundef %16, i32 noundef %17, i32 noundef %18, i8 noundef signext 1, ptr noundef %19)
  %20 = load i32, ptr %8, align 4, !tbaa !57
  %21 = call noundef signext i8 @_ZN6icu_7720CollationDataBuilder20isBuilderContextCE32Ej(i32 noundef %20)
  %22 = icmp ne i8 %21, 0
  br i1 %22, label %23, label %30

23:                                               ; preds = %4
  %24 = getelementptr inbounds nuw %"class.icu_77::CopyHelper", ptr %9, i32 0, i32 1
  %25 = load ptr, ptr %24, align 8, !tbaa !230
  %26 = getelementptr inbounds nuw %"class.icu_77::CollationDataBuilder", ptr %25, i32 0, i32 8
  %27 = load i32, ptr %6, align 4, !tbaa !57
  %28 = load i32, ptr %7, align 4, !tbaa !57
  %29 = call noundef nonnull align 8 dereferenceable(200) ptr @_ZN6icu_7710UnicodeSet3addEii(ptr noundef nonnull align 8 dereferenceable(200) %26, i32 noundef %27, i32 noundef %28)
  br label %30

30:                                               ; preds = %23, %4
  %31 = getelementptr inbounds nuw %"class.icu_77::CopyHelper", ptr %9, i32 0, i32 4
  %32 = load i32, ptr %31, align 8, !tbaa !180
  %33 = call noundef signext i8 @_ZL9U_SUCCESS10UErrorCode(i32 noundef %32)
  ret i8 %33
}

; Function Attrs: mustprogress uwtable
define internal noundef signext i8 @_ZN6icu_77L16enumRangeForCopyEPKviij(ptr noundef %0, i32 noundef %1, i32 noundef %2, i32 noundef %3) #4 {
  %5 = alloca ptr, align 8
  %6 = alloca i32, align 4
  %7 = alloca i32, align 4
  %8 = alloca i32, align 4
  store ptr %0, ptr %5, align 8, !tbaa !8
  store i32 %1, ptr %6, align 4, !tbaa !57
  store i32 %2, ptr %7, align 4, !tbaa !57
  store i32 %3, ptr %8, align 4, !tbaa !57
  %9 = load i32, ptr %8, align 4, !tbaa !57
  %10 = icmp eq i32 %9, -1
  br i1 %10, label %21, label %11

11:                                               ; preds = %4
  %12 = load i32, ptr %8, align 4, !tbaa !57
  %13 = icmp eq i32 %12, 192
  br i1 %13, label %21, label %14

14:                                               ; preds = %11
  %15 = load ptr, ptr %5, align 8, !tbaa !8
  %16 = load i32, ptr %6, align 4, !tbaa !57
  %17 = load i32, ptr %7, align 4, !tbaa !57
  %18 = load i32, ptr %8, align 4, !tbaa !57
  %19 = call noundef signext i8 @_ZN6icu_7710CopyHelper13copyRangeCE32Eiij(ptr noundef nonnull align 8 dereferenceable(276) %15, i32 noundef %16, i32 noundef %17, i32 noundef %18)
  %20 = icmp ne i8 %19, 0
  br label %21

21:                                               ; preds = %14, %11, %4
  %22 = phi i1 [ true, %11 ], [ true, %4 ], [ %20, %14 ]
  %23 = zext i1 %22 to i8
  ret i8 %23
}