; Function Attrs: mustprogress uwtable
define internal noundef signext range(i8 0, 2) i8 @_ZN6icu_77L16enumRangeForCopyEPKviij(ptr noundef %0, i32 noundef %1, i32 noundef %2, i32 noundef %3) #6 {
  switch i32 %3, label %5 [
    i32 -1, label %20
    i32 192, label %20
  ]

5:                                                ; preds = %4
  %6 = tail call noundef i32 @_ZN6icu_7710CopyHelper8copyCE32Ej(ptr noundef nonnull align 8 dereferenceable(276) %0, i32 noundef %3)
  %7 = getelementptr inbounds nuw i8, ptr %0, i64 8
  %8 = load ptr, ptr %7, align 8, !tbaa !157
  %9 = getelementptr inbounds nuw i8, ptr %8, i64 32
  %10 = load ptr, ptr %9, align 8, !tbaa !80
  %11 = getelementptr inbounds nuw i8, ptr %0, i64 272
  tail call void @utrie2_setRange32_77(ptr noundef %10, i32 noundef %1, i32 noundef %2, i32 noundef %6, i8 noundef signext 1, ptr noundef nonnull %11)
  %12 = and i32 %6, 207
  %narrow.i.i.not.i = icmp eq i32 %12, 199
  br i1 %narrow.i.i.not.i, label %13, label %_ZN6icu_7710CopyHelper13copyRangeCE32Eiij.exit

13:                                               ; preds = %5
  %14 = load ptr, ptr %7, align 8, !tbaa !157
  %15 = getelementptr inbounds nuw i8, ptr %14, i64 144
  %16 = tail call noundef nonnull align 8 dereferenceable(200) ptr @_ZN6icu_7710UnicodeSet3addEii(ptr noundef nonnull align 8 dereferenceable(200) %15, i32 noundef %1, i32 noundef %2)
  br label %_ZN6icu_7710CopyHelper13copyRangeCE32Eiij.exit

_ZN6icu_7710CopyHelper13copyRangeCE32Eiij.exit:   ; preds = %5, %13
  %17 = load i32, ptr %11, align 8, !tbaa !155
  %18 = icmp slt i32 %17, 1
  %19 = zext i1 %18 to i8
  br label %20

20:                                               ; preds = %4, %4, %_ZN6icu_7710CopyHelper13copyRangeCE32Eiij.exit
  %21 = phi i8 [ 1, %4 ], [ %19, %_ZN6icu_7710CopyHelper13copyRangeCE32Eiij.exit ], [ 1, %4 ]
  ret i8 %21
}